; Function Attrs: mustprogress nofree norecurse nosync nounwind memory(readwrite, inaccessiblemem: none) uwtable
define hidden void @_ZN3sls7bv_eval19restore_bool_valuesEj(ptr noundef nonnull readonly align 8 captures(none) dereferenceable(865) %0, i32 noundef %1) local_unnamed_addr #9 align 2 {
  %3 = getelementptr inbounds nuw i8, ptr %0, i64 536
  %4 = load ptr, ptr %3, align 8, !tbaa !162
  %5 = icmp eq ptr %4, null
  br i1 %5, label %_ZN6vectorISt4pairIj5lboolELb0EjE6shrinkEj.exit, label %_ZNK6vectorISt4pairIj5lboolELb0EjE4sizeEv.exit

_ZNK6vectorISt4pairIj5lboolELb0EjE4sizeEv.exit:   ; preds = %2
  %6 = getelementptr inbounds i8, ptr %4, i64 -4
  %7 = load i32, ptr %6, align 4, !tbaa !102
  %8 = icmp ugt i32 %7, %1
  br i1 %8, label %.lr.ph, label %.loopexit

.lr.ph:                                           ; preds = %_ZNK6vectorISt4pairIj5lboolELb0EjE4sizeEv.exit
  %9 = getelementptr inbounds nuw i8, ptr %0, i64 528
  %10 = load ptr, ptr %9, align 8, !tbaa !158
  %11 = zext i32 %7 to i64
  %12 = zext i32 %1 to i64
  br label %14

.loopexit:                                        ; preds = %14, %_ZNK6vectorISt4pairIj5lboolELb0EjE4sizeEv.exit
  %13 = getelementptr inbounds i8, ptr %4, i64 -4
  store i32 %1, ptr %13, align 4, !tbaa !102
  br label %_ZN6vectorISt4pairIj5lboolELb0EjE6shrinkEj.exit

_ZN6vectorISt4pairIj5lboolELb0EjE6shrinkEj.exit:  ; preds = %2, %.loopexit
  ret void

14:                                               ; preds = %.lr.ph, %14
  %indvars.iv = phi i64 [ %11, %.lr.ph ], [ %15, %14 ]
  %15 = add nsw i64 %indvars.iv, -1
  %16 = getelementptr inbounds nuw %"struct.std::pair", ptr %4, i64 %15
  %17 = getelementptr inbounds nuw i8, ptr %16, i64 4
  %18 = load i32, ptr %16, align 4, !tbaa !102
  %19 = load i32, ptr %17, align 4, !tbaa !159
  %20 = zext i32 %18 to i64
  %21 = getelementptr inbounds nuw i32, ptr %10, i64 %20
  store i32 %19, ptr %21, align 4, !tbaa !159
  %.wide = icmp ugt i64 %15, %12
  br i1 %.wide, label %14, label %.loopexit, !llvm.loop !165
}